(i__main__
carriera
p0
(dp1
S'status'
p2
S'non attivo'
p3
sS'luglio'
p4
(lp5
I14
aI16
aI15
aI9
aI1
aI12
aI4
aI5
aI10
aI7
aI3
aI0
aI2
aI6
aI11
aI8
aI13
asS'agosto'
p6
(lp7
I16
aI14
aI0
aI15
aI7
aI11
aI4
aI2
aI3
aI13
aI1
aI9
aI5
aI12
aI8
aI10
aI6
asS'prove'
p8
(lp9
(lp10
(lp11
I14
aI16
aI15
aI9
aI1
aI12
aI4
aI5
aI10
aI7
aaa(lp12
(lp13
aasS'giocatori'
p14
(lp15
sS'anno'
p16
I2014
sS'straordinario'
p17
(lp18
I4
aI0
aI12
aI7
aI8
aI2
aI10
aI14
aI1
aI11
aI5
aI16
aI6
aI9
aI13
aI3
aI15
asS'debug'
p19
I01
sS'las'
p20
I0
sb.